; Function Attrs: mustprogress uwtable
define noundef i32 @_ZN6icu_7514CopticCalendar21handleGetExtendedYearEv(ptr noundef nonnull align 8 dereferenceable(618) %this) unnamed_addr #1 align 2 {
entry:
  %call = tail call noundef i32 @_ZNK6icu_758Calendar10newerFieldE19UCalendarDateFieldsS1_(ptr noundef nonnull align 8 dereferenceable(618) %this, i32 noundef 19, i32 noundef 1)
  %cmp = icmp eq i32 %call, 19
  br i1 %cmp, label %if.then, label %if.else

if.then:                                          ; preds = %entry
  %arrayidx.i = getelementptr inbounds i8, ptr %this, i64 208
  %0 = load i32, ptr %arrayidx.i, align 8
  %cmp.i = icmp sgt i32 %0, 0
  br i1 %cmp.i, label %cond.true.i, label %if.end9

cond.true.i:                                      ; preds = %if.then
  %arrayidx3.i = getelementptr inbounds i8, ptr %this, i64 88
  %1 = load i32, ptr %arrayidx3.i, align 8
  br label %if.end9

if.else:                                          ; preds = %entry
  %fStamp.i1 = getelementptr inbounds i8, ptr %this, i64 132
  %2 = load i32, ptr %fStamp.i1, align 4
  %cmp.i2 = icmp sgt i32 %2, 0
  %fFields.i5 = getelementptr inbounds i8, ptr %this, i64 12
  %3 = load i32, ptr %fFields.i5, align 4
  %cmp4 = icmp eq i32 %3, 0
  %or.cond = select i1 %cmp.i2, i1 %cmp4, i1 false
  %arrayidx.i8 = getelementptr inbounds i8, ptr %this, i64 136
  %4 = load i32, ptr %arrayidx.i8, align 8
  br i1 %or.cond, label %if.then5, label %if.else7

if.then5:                                         ; preds = %if.else
  %arrayidx3.i13 = getelementptr inbounds i8, ptr %this, i64 16
  %5 = load i32, ptr %arrayidx3.i13, align 8
  %6 = sub nsw i32 1, %5
  %cmp.i9.inv.inv = icmp sgt i32 %4, 0
  %sub = select i1 %cmp.i9.inv.inv, i32 %6, i32 0
  br label %if.end9

if.else7:                                         ; preds = %if.else
  %cmp.i17 = icmp sgt i32 %4, 0
  br i1 %cmp.i17, label %cond.true.i19, label %if.end9

cond.true.i19:                                    ; preds = %if.else7
  %arrayidx3.i21 = getelementptr inbounds i8, ptr %this, i64 16
  %7 = load i32, ptr %arrayidx3.i21, align 8
  br label %if.end9

if.end9:                                          ; preds = %cond.true.i19, %if.else7, %cond.true.i, %if.then, %if.then5
  %eyear.0 = phi i32 [ %sub, %if.then5 ], [ %1, %cond.true.i ], [ 1, %if.then ], [ %7, %cond.true.i19 ], [ 1, %if.else7 ]
  ret i32 %eyear.0
}